target datalayout = "e-m:e-p270:32:32-p271:32:32-p272:64:64-i64:64-i128:128-f80:128-n8:16:32:64-S128"
target triple = "x86_64-pc-linux-gnu"

%struct._stritem = type { ptr, ptr, ptr, i32, i32, i32, i16, i16, i8, i8, [0 x %union.anon.12] }
%union.anon.12 = type { i64 }

; Function Attrs: nounwind uwtable
define dso_local ptr @limited_get(ptr noundef %0, i64 noundef %1, ptr noundef %2, i32 noundef %3, i1 noundef zeroext %4, i1 noundef zeroext %5, ptr noundef %6) #0 {
  %8 = alloca ptr, align 8
  %9 = alloca i64, align 8
  %10 = alloca ptr, align 8
  %11 = alloca i32, align 4
  %12 = alloca i8, align 1
  %13 = alloca i8, align 1
  %14 = alloca ptr, align 8
  %15 = alloca ptr, align 8
  store ptr %0, ptr %8, align 8, !tbaa !29
  store i64 %1, ptr %9, align 8, !tbaa !4
  store ptr %2, ptr %10, align 8, !tbaa !68
  store i32 %3, ptr %11, align 4, !tbaa !8
  %16 = zext i1 %4 to i8
  store i8 %16, ptr %12, align 1, !tbaa !57
  %17 = zext i1 %5 to i8
  store i8 %17, ptr %13, align 1, !tbaa !57
  store ptr %6, ptr %14, align 8, !tbaa !330
  call void @llvm.lifetime.start.p0(i64 8, ptr %15) #15
  %18 = load i8, ptr %12, align 1, !tbaa !57, !range !59, !noundef !60
  %19 = trunc i8 %18 to i1
  br i1 %19, label %20, label %26

20:                                               ; preds = %7
  %21 = load ptr, ptr %8, align 8, !tbaa !29
  %22 = load i64, ptr %9, align 8, !tbaa !4
  %23 = load i32, ptr %11, align 4, !tbaa !8
  %24 = load ptr, ptr %10, align 8, !tbaa !68
  %25 = call ptr @item_touch(ptr noundef %21, i64 noundef %22, i32 noundef %23, ptr noundef %24)
  store ptr %25, ptr %15, align 8, !tbaa !184
  br label %33

26:                                               ; preds = %7
  %27 = load ptr, ptr %8, align 8, !tbaa !29
  %28 = load i64, ptr %9, align 8, !tbaa !4
  %29 = load ptr, ptr %10, align 8, !tbaa !68
  %30 = load i8, ptr %13, align 1, !tbaa !57, !range !59, !noundef !60
  %31 = trunc i8 %30 to i1
  %32 = call ptr @item_get(ptr noundef %27, i64 noundef %28, ptr noundef %29, i1 noundef zeroext %31)
  store ptr %32, ptr %15, align 8, !tbaa !184
  br label %33

33:                                               ; preds = %26, %20
  %34 = load ptr, ptr %15, align 8, !tbaa !184
  %35 = icmp ne ptr %34, null
  br i1 %35, label %36, label %45

36:                                               ; preds = %33
  %37 = load ptr, ptr %15, align 8, !tbaa !184
  %38 = getelementptr inbounds nuw %struct._stritem, ptr %37, i32 0, i32 6
  %39 = load i16, ptr %38, align 4, !tbaa !79
  %40 = zext i16 %39 to i32
  %41 = icmp sgt i32 %40, 60000
  br i1 %41, label %42, label %45

42:                                               ; preds = %36
  %43 = load ptr, ptr %15, align 8, !tbaa !184
  call void @item_remove(ptr noundef %43)
  store ptr null, ptr %15, align 8, !tbaa !184
  %44 = load ptr, ptr %14, align 8, !tbaa !330
  store i8 1, ptr %44, align 1, !tbaa !57
  br label %47

45:                                               ; preds = %36, %33
  %46 = load ptr, ptr %14, align 8, !tbaa !330
  store i8 0, ptr %46, align 1, !tbaa !57
  br label %47

47:                                               ; preds = %45, %42
  %48 = load ptr, ptr %15, align 8, !tbaa !184
  call void @llvm.lifetime.end.p0(i64 8, ptr %15) #15
  ret ptr %48
}