; Function Attrs: nounwind uwtable
define dso_local ptr @limited_get(ptr noundef %0, i64 noundef %1, ptr noundef %2, i32 noundef %3, i1 noundef zeroext %4, i1 noundef zeroext %5, ptr noundef writeonly captures(none) initializes((0, 1)) %6) local_unnamed_addr #1 {
  br i1 %4, label %8, label %10

8:                                                ; preds = %7
  %9 = tail call ptr @item_touch(ptr noundef %0, i64 noundef %1, i32 noundef %3, ptr noundef %2) #34
  br label %12

10:                                               ; preds = %7
  %11 = tail call ptr @item_get(ptr noundef %0, i64 noundef %1, ptr noundef %2, i1 noundef zeroext %5) #34
  br label %12

12:                                               ; preds = %10, %8
  %.0 = phi ptr [ %9, %8 ], [ %11, %10 ]
  %.not = icmp eq ptr %.0, null
  br i1 %.not, label %18, label %13

13:                                               ; preds = %12
  %14 = getelementptr inbounds nuw i8, ptr %.0, i64 36
  %15 = load i16, ptr %14, align 4, !tbaa !87
  %16 = icmp ugt i16 %15, -5536
  br i1 %16, label %17, label %18

17:                                               ; preds = %13
  tail call void @item_remove(ptr noundef nonnull %.0) #34
  br label %18

18:                                               ; preds = %12, %13, %17
  %storemerge = phi i8 [ 1, %17 ], [ 0, %13 ], [ 0, %12 ]
  %.1 = phi ptr [ null, %17 ], [ %.0, %13 ], [ null, %12 ]
  store i8 %storemerge, ptr %6, align 1, !tbaa !160
  ret ptr %.1
}